; Function Attrs: mustprogress nofree nounwind willreturn memory(read, inaccessiblemem: none) uwtable
define dso_local noundef zeroext i1 @_ZNK4llvm7IRMover17StructTypeKeyInfo5KeyTyneERKS2_(ptr nocapture noundef nonnull readonly align 8 dereferenceable(17) %0, ptr nocapture noundef nonnull readonly align 8 dereferenceable(17) %1) local_unnamed_addr #4 align 2 {
  %3 = getelementptr inbounds nuw i8, ptr %0, i64 16
  %4 = load i8, ptr %3, align 8
  %5 = getelementptr inbounds nuw i8, ptr %1, i64 16
  %6 = load i8, ptr %5, align 8
  %7 = xor i8 %6, %4
  %8 = and i8 %7, 1
  %9 = icmp eq i8 %8, 0
  br i1 %9, label %10, label %_ZNK4llvm7IRMover17StructTypeKeyInfo5KeyTyeqERKS2_.exit

10:                                               ; preds = %2
  %.sroa.01.0.copyload.i = load ptr, ptr %0, align 8
  %.sroa.22.0..sroa_idx.i = getelementptr inbounds i8, ptr %0, i64 8
  %.sroa.22.0.copyload.i = load i64, ptr %.sroa.22.0..sroa_idx.i, align 8
  %.sroa.0.0.copyload.i = load ptr, ptr %1, align 8
  %.sroa.2.0..sroa_idx.i = getelementptr inbounds i8, ptr %1, i64 8
  %.sroa.2.0.copyload.i = load i64, ptr %.sroa.2.0..sroa_idx.i, align 8
  %.not.i.i.i = icmp eq i64 %.sroa.22.0.copyload.i, %.sroa.2.0.copyload.i
  br i1 %.not.i.i.i, label %11, label %_ZNK4llvm7IRMover17StructTypeKeyInfo5KeyTyeqERKS2_.exit

11:                                               ; preds = %10
  %.not.i.i.i.i.i.i.i = icmp eq i64 %.sroa.22.0.copyload.i, 0
  br i1 %.not.i.i.i.i.i.i.i, label %_ZNK4llvm7IRMover17StructTypeKeyInfo5KeyTyeqERKS2_.exit, label %12

12:                                               ; preds = %11
  %.idx.i.i.i = shl nsw i64 %.sroa.22.0.copyload.i, 3
  %bcmp.i.i.i.i.i.i.i = tail call i32 @bcmp(ptr %.sroa.01.0.copyload.i, ptr %.sroa.0.0.copyload.i, i64 %.idx.i.i.i)
  %.not7.i.i.i.i.i.i.i = icmp ne i32 %bcmp.i.i.i.i.i.i.i, 0
  br label %_ZNK4llvm7IRMover17StructTypeKeyInfo5KeyTyeqERKS2_.exit

_ZNK4llvm7IRMover17StructTypeKeyInfo5KeyTyeqERKS2_.exit: ; preds = %2, %10, %11, %12
  %13 = phi i1 [ true, %2 ], [ true, %10 ], [ %.not7.i.i.i.i.i.i.i, %12 ], [ false, %11 ]
  ret i1 %13
}